; Function Attrs: nounwind uwtable
define zeroext range(i8 0, 2) i8 @l_List_hasDecEq___at_Lean_Meta_beqOccurrences____x40_Init_MetaTypes___hyg_1231____spec__1(ptr noundef %0, ptr noundef %1) local_unnamed_addr #1 {
  br label %.backedge

.backedge:                                        ; preds = %.backedge.backedge, %2
  %.020 = phi ptr [ %1, %2 ], [ %38, %.backedge.backedge ]
  %.018 = phi ptr [ %0, %2 ], [ %34, %.backedge.backedge ]
  %3 = ptrtoint ptr %.018 to i64
  %4 = and i64 %3, 1
  %.not.i = icmp eq i64 %4, 0
  br i1 %.not.i, label %8, label %5

5:                                                ; preds = %.backedge
  %6 = lshr i64 %3, 1
  %7 = trunc i64 %6 to i32
  br label %lean_obj_tag.exit

8:                                                ; preds = %.backedge
  %9 = getelementptr i8, ptr %.018, i64 4
  %.val.i = load i32, ptr %9, align 4
  %10 = lshr i32 %.val.i, 24
  br label %lean_obj_tag.exit

lean_obj_tag.exit:                                ; preds = %5, %8
  %.0.i23 = phi i32 [ %7, %5 ], [ %10, %8 ]
  %11 = icmp eq i32 %.0.i23, 0
  %12 = ptrtoint ptr %.020 to i64
  %13 = and i64 %12, 1
  %.not.i24 = icmp eq i64 %13, 0
  br i1 %11, label %14, label %22

14:                                               ; preds = %lean_obj_tag.exit
  br i1 %.not.i24, label %18, label %15

15:                                               ; preds = %14
  %16 = lshr i64 %12, 1
  %17 = trunc i64 %16 to i32
  br label %lean_obj_tag.exit27

18:                                               ; preds = %14
  %19 = getelementptr i8, ptr %.020, i64 4
  %.val.i26 = load i32, ptr %19, align 4
  %20 = lshr i32 %.val.i26, 24
  br label %lean_obj_tag.exit27

lean_obj_tag.exit27:                              ; preds = %15, %18
  %.0.i25 = phi i32 [ %17, %15 ], [ %20, %18 ]
  %21 = icmp eq i32 %.0.i25, 0
  %. = zext i1 %21 to i8
  br label %.loopexit

22:                                               ; preds = %lean_obj_tag.exit
  br i1 %.not.i24, label %26, label %23

23:                                               ; preds = %22
  %24 = lshr i64 %12, 1
  %25 = trunc i64 %24 to i32
  br label %lean_obj_tag.exit31

26:                                               ; preds = %22
  %27 = getelementptr i8, ptr %.020, i64 4
  %.val.i30 = load i32, ptr %27, align 4
  %28 = lshr i32 %.val.i30, 24
  br label %lean_obj_tag.exit31

lean_obj_tag.exit31:                              ; preds = %23, %26
  %.0.i29 = phi i32 [ %25, %23 ], [ %28, %26 ]
  %29 = icmp eq i32 %.0.i29, 0
  br i1 %29, label %.loopexit, label %30

30:                                               ; preds = %lean_obj_tag.exit31
  %31 = getelementptr inbounds nuw i8, ptr %.018, i64 8
  %32 = load ptr, ptr %31, align 8, !tbaa !10
  %33 = getelementptr inbounds nuw i8, ptr %.018, i64 16
  %34 = load ptr, ptr %33, align 8, !tbaa !10
  %35 = getelementptr inbounds nuw i8, ptr %.020, i64 8
  %36 = load ptr, ptr %35, align 8, !tbaa !10
  %37 = getelementptr inbounds nuw i8, ptr %.020, i64 16
  %38 = load ptr, ptr %37, align 8, !tbaa !10
  %39 = ptrtoint ptr %32 to i64
  %40 = and i64 %39, 1
  %41 = icmp ne i64 %40, 0
  %42 = ptrtoint ptr %36 to i64
  %43 = and i64 %42, 1
  %44 = icmp ne i64 %43, 0
  %or.cond = select i1 %41, i1 %44, i1 false
  br i1 %or.cond, label %45, label %lean_nat_eq.exit, !prof !16

45:                                               ; preds = %30
  %46 = icmp eq ptr %32, %36
  br i1 %46, label %.backedge.backedge, label %.loopexit

lean_nat_eq.exit:                                 ; preds = %30
  %47 = tail call zeroext i1 @lean_nat_big_eq(ptr noundef %32, ptr noundef %36) #7
  br i1 %47, label %.backedge.backedge, label %.loopexit

.backedge.backedge:                               ; preds = %lean_nat_eq.exit, %45
  br label %.backedge

.loopexit:                                        ; preds = %lean_nat_eq.exit, %lean_obj_tag.exit31, %45, %lean_obj_tag.exit27
  %.1 = phi i8 [ %., %lean_obj_tag.exit27 ], [ 0, %45 ], [ 0, %lean_obj_tag.exit31 ], [ 0, %lean_nat_eq.exit ]
  ret i8 %.1
}